; Function Attrs: mustprogress nofree norecurse nosync nounwind willreturn memory(read, inaccessiblemem: none) uwtable
define dso_local noundef i32 @_ZNK4i18n12phonenumbers11UnicodeText4sizeEv(ptr noundef nonnull readonly align 8 captures(none) dereferenceable(24) %0) local_unnamed_addr #0 align 2 {
  %2 = load ptr, ptr %0, align 8, !tbaa !44
  %3 = getelementptr inbounds nuw i8, ptr %0, i64 8
  %4 = load i32, ptr %3, align 8, !tbaa !46
  %5 = sext i32 %4 to i64
  %6 = getelementptr inbounds i8, ptr %2, i64 %5
  %7 = icmp sgt i32 %4, 0
  br i1 %7, label %.lr.ph.i.i, label %_ZN4i18n12phonenumbersL14CodepointCountEPKci.exit

.lr.ph.i.i:                                       ; preds = %1, %.lr.ph.i.i
  %.08.i.i = phi ptr [ %12, %.lr.ph.i.i ], [ %2, %1 ]
  %.067.i.i = phi i32 [ %11, %.lr.ph.i.i ], [ 0, %1 ]
  %8 = load i8, ptr %.08.i.i, align 1, !tbaa !10
  %9 = icmp sgt i8 %8, -65
  %10 = zext i1 %9 to i32
  %11 = add nuw nsw i32 %.067.i.i, %10
  %12 = getelementptr inbounds nuw i8, ptr %.08.i.i, i64 1
  %exitcond.not.i.i = icmp eq ptr %12, %6
  br i1 %exitcond.not.i.i, label %_ZN4i18n12phonenumbersL14CodepointCountEPKci.exit, label %.lr.ph.i.i, !llvm.loop !11

_ZN4i18n12phonenumbersL14CodepointCountEPKci.exit: ; preds = %.lr.ph.i.i, %1
  %.06.lcssa.i.i = phi i32 [ 0, %1 ], [ %11, %.lr.ph.i.i ]
  ret i32 %.06.lcssa.i.i
}